target datalayout = "e-m:e-p270:32:32-p271:32:32-p272:64:64-i64:64-i128:128-f80:128-n8:16:32:64-S128"
target triple = "x86_64-pc-linux-gnu"

%struct.PacketOutputStream = type { ptr, i32, ptr, %struct.PacketData, i32, i8, %struct.jdwpPacket, [300 x i8], ptr }
%struct.PacketData = type { i32, ptr, ptr }
%struct.jdwpPacket = type { %union.anon }
%union.anon = type { %struct.jdwpCmdPacket }
%struct.jdwpCmdPacket = type { i32, i32, i8, i8, i8, ptr }

; Function Attrs: nounwind uwtable
define hidden zeroext i16 @outStream_writeObjectRef(ptr noundef %0, ptr noundef %1, ptr noundef %2) #0 {
  %4 = alloca i16, align 2
  %5 = alloca ptr, align 8
  %6 = alloca ptr, align 8
  %7 = alloca ptr, align 8
  %8 = alloca i64, align 8
  %9 = alloca ptr, align 8
  store ptr %0, ptr %5, align 8
  store ptr %1, ptr %6, align 8
  store ptr %2, ptr %7, align 8
  %10 = load ptr, ptr %6, align 8
  %11 = getelementptr inbounds %struct.PacketOutputStream, ptr %10, i32 0, i32 4
  %12 = load i32, ptr %11, align 8
  %13 = icmp ne i32 %12, 0
  br i1 %13, label %14, label %19

14:                                               ; preds = %3
  %15 = load ptr, ptr %6, align 8
  %16 = getelementptr inbounds %struct.PacketOutputStream, ptr %15, i32 0, i32 4
  %17 = load i32, ptr %16, align 8
  %18 = trunc i32 %17 to i16
  store i16 %18, ptr %4, align 2
  br label %89

19:                                               ; preds = %3
  %20 = load ptr, ptr %7, align 8
  %21 = icmp eq ptr %20, null
  br i1 %21, label %22, label %23

22:                                               ; preds = %19
  store i64 0, ptr %8, align 8
  br label %86

23:                                               ; preds = %19
  %24 = load ptr, ptr %5, align 8
  %25 = load ptr, ptr %7, align 8
  %26 = call i64 @commonRef_refToID(ptr noundef %24, ptr noundef %25)
  store i64 %26, ptr %8, align 8
  %27 = load i64, ptr %8, align 8
  %28 = icmp eq i64 %27, 0
  br i1 %28, label %29, label %36

29:                                               ; preds = %23
  %30 = load ptr, ptr %6, align 8
  %31 = getelementptr inbounds %struct.PacketOutputStream, ptr %30, i32 0, i32 4
  store i32 110, ptr %31, align 8
  %32 = load ptr, ptr %6, align 8
  %33 = getelementptr inbounds %struct.PacketOutputStream, ptr %32, i32 0, i32 4
  %34 = load i32, ptr %33, align 8
  %35 = trunc i32 %34 to i16
  store i16 %35, ptr %4, align 2
  br label %89

36:                                               ; preds = %23
  %37 = load ptr, ptr %6, align 8
  %38 = getelementptr inbounds %struct.PacketOutputStream, ptr %37, i32 0, i32 8
  %39 = load ptr, ptr %38, align 8
  %40 = call ptr @bagAdd(ptr noundef %39)
  store ptr %40, ptr %9, align 8
  %41 = load ptr, ptr %9, align 8
  %42 = icmp eq ptr %41, null
  br i1 %42, label %43, label %52

43:                                               ; preds = %36
  %44 = load ptr, ptr %5, align 8
  %45 = load i64, ptr %8, align 8
  call void @commonRef_release(ptr noundef %44, i64 noundef %45)
  %46 = load ptr, ptr %6, align 8
  %47 = getelementptr inbounds %struct.PacketOutputStream, ptr %46, i32 0, i32 4
  store i32 110, ptr %47, align 8
  %48 = load ptr, ptr %6, align 8
  %49 = getelementptr inbounds %struct.PacketOutputStream, ptr %48, i32 0, i32 4
  %50 = load i32, ptr %49, align 8
  %51 = trunc i32 %50 to i16
  store i16 %51, ptr %4, align 2
  br label %89

52:                                               ; preds = %36
  %53 = load i64, ptr %8, align 8
  %54 = load ptr, ptr %9, align 8
  store i64 %53, ptr %54, align 8
  br label %55

55:                                               ; preds = %52
  %56 = load i64, ptr %8, align 8
  %57 = shl i64 %56, 56
  %58 = load i64, ptr %8, align 8
  %59 = and i64 %58, 65280
  %60 = shl i64 %59, 40
  %61 = or i64 %57, %60
  %62 = load i64, ptr %8, align 8
  %63 = and i64 %62, 16711680
  %64 = shl i64 %63, 24
  %65 = or i64 %61, %64
  %66 = load i64, ptr %8, align 8
  %67 = and i64 %66, 4278190080
  %68 = shl i64 %67, 8
  %69 = or i64 %65, %68
  %70 = load i64, ptr %8, align 8
  %71 = and i64 %70, 1095216660480
  %72 = ashr i64 %71, 8
  %73 = or i64 %69, %72
  %74 = load i64, ptr %8, align 8
  %75 = and i64 %74, 280375465082880
  %76 = ashr i64 %75, 24
  %77 = or i64 %73, %76
  %78 = load i64, ptr %8, align 8
  %79 = and i64 %78, 71776119061217280
  %80 = ashr i64 %79, 40
  %81 = or i64 %77, %80
  %82 = load i64, ptr %8, align 8
  %83 = and i64 %82, -72057594037927936
  %84 = lshr i64 %83, 56
  %85 = or i64 %81, %84
  store i64 %85, ptr %8, align 8
  br label %86

86:                                               ; preds = %55, %22
  %87 = load ptr, ptr %6, align 8
  %88 = call zeroext i16 @writeBytes(ptr noundef %87, ptr noundef %8, i32 noundef 8)
  store i16 %88, ptr %4, align 2
  br label %89

89:                                               ; preds = %86, %43, %29, %14
  %90 = load i16, ptr %4, align 2
  ret i16 %90
}