; Function Attrs: nounwind uwtable
define hidden zeroext i16 @outStream_writeObjectRef(ptr noundef %0, ptr nocapture noundef %1, ptr noundef %2) local_unnamed_addr #0 {
  %4 = alloca i64, align 8
  %5 = getelementptr inbounds i8, ptr %1, i64 48
  %6 = load i32, ptr %5, align 8
  %.not = icmp eq i32 %6, 0
  br i1 %.not, label %9, label %7

7:                                                ; preds = %3
  %8 = trunc i32 %6 to i16
  br label %25

9:                                                ; preds = %3
  %10 = icmp eq ptr %2, null
  br i1 %10, label %23, label %11

11:                                               ; preds = %9
  %12 = tail call i64 @commonRef_refToID(ptr noundef %0, ptr noundef nonnull %2) #7
  %13 = icmp eq i64 %12, 0
  br i1 %13, label %14, label %15

14:                                               ; preds = %11
  store i32 110, ptr %5, align 8
  br label %25

15:                                               ; preds = %11
  %16 = getelementptr inbounds i8, ptr %1, i64 384
  %17 = load ptr, ptr %16, align 8
  %18 = tail call ptr @bagAdd(ptr noundef %17) #7
  %19 = icmp eq ptr %18, null
  br i1 %19, label %20, label %21

20:                                               ; preds = %15
  tail call void @commonRef_release(ptr noundef %0, i64 noundef %12) #7
  store i32 110, ptr %5, align 8
  br label %25

21:                                               ; preds = %15
  store i64 %12, ptr %18, align 8
  %22 = tail call i64 @llvm.bswap.i64(i64 %12)
  br label %23

23:                                               ; preds = %9, %21
  %storemerge = phi i64 [ %22, %21 ], [ 0, %9 ]
  store i64 %storemerge, ptr %4, align 8
  %24 = call fastcc zeroext i16 @writeBytes(ptr noundef nonnull %1, ptr noundef nonnull %4, i32 noundef 8)
  br label %25

25:                                               ; preds = %23, %20, %14, %7
  %.0 = phi i16 [ %8, %7 ], [ %24, %23 ], [ 110, %14 ], [ 110, %20 ]
  ret i16 %.0
}